target datalayout = "e-m:e-p270:32:32-p271:32:32-p272:64:64-i64:64-i128:128-f80:128-n8:16:32:64-S128"
target triple = "x86_64-pc-linux-gnu"

%struct.tzhead = type { [4 x i8], [1 x i8], [15 x i8], [4 x i8], [4 x i8], [4 x i8], [4 x i8], [4 x i8], [4 x i8] }
%"struct.absl::time_internal::cctz::(anonymous namespace)::Header" = type { i64, i64, i64, i64, i64, i64 }

; Function Attrs: inlinehint mustprogress nounwind uwtable
define internal noundef zeroext i8 @_ZN4absl13time_internal4cctz12_GLOBAL__N_17Decode8EPKc(ptr noundef %0) #3 {
  %2 = alloca ptr, align 8
  store ptr %0, ptr %2, align 8, !tbaa !15
  %3 = load ptr, ptr %2, align 8, !tbaa !15
  %4 = load i8, ptr %3, align 1, !tbaa !30
  %5 = zext i8 %4 to i32
  %6 = and i32 %5, 255
  %7 = trunc i32 %6 to i8
  ret i8 %7
}

; Function Attrs: mustprogress uwtable
define internal noundef i64 @_ZN4absl13time_internal4cctz12_GLOBAL__N_18Decode32EPKc(ptr noundef %0) #0 {
  %2 = alloca i64, align 8
  %3 = alloca ptr, align 8
  %4 = alloca i64, align 8
  %5 = alloca i32, align 4
  %6 = alloca i64, align 8
  %7 = alloca i64, align 8
  %8 = alloca i32, align 4
  store ptr %0, ptr %3, align 8, !tbaa !15
  call void @llvm.lifetime.start.p0(i64 8, ptr %4) #17
  store i64 0, ptr %4, align 8, !tbaa !9
  call void @llvm.lifetime.start.p0(i64 4, ptr %5) #17
  store i32 0, ptr %5, align 4, !tbaa !74
  br label %9

9:                                                ; preds = %21, %1
  %10 = load i32, ptr %5, align 4, !tbaa !74
  %11 = icmp ne i32 %10, 4
  br i1 %11, label %13, label %12

12:                                               ; preds = %9
  call void @llvm.lifetime.end.p0(i64 4, ptr %5) #17
  br label %24

13:                                               ; preds = %9
  %14 = load i64, ptr %4, align 8, !tbaa !9
  %15 = shl i64 %14, 8
  %16 = load ptr, ptr %3, align 8, !tbaa !15
  %17 = getelementptr inbounds nuw i8, ptr %16, i32 1
  store ptr %17, ptr %3, align 8, !tbaa !15
  %18 = call noundef zeroext i8 @_ZN4absl13time_internal4cctz12_GLOBAL__N_17Decode8EPKc(ptr noundef %16)
  %19 = zext i8 %18 to i64
  %20 = or i64 %15, %19
  store i64 %20, ptr %4, align 8, !tbaa !9
  br label %21

21:                                               ; preds = %13
  %22 = load i32, ptr %5, align 4, !tbaa !74
  %23 = add nsw i32 %22, 1
  store i32 %23, ptr %5, align 4, !tbaa !74
  br label %9, !llvm.loop !154

24:                                               ; preds = %12
  call void @llvm.lifetime.start.p0(i64 8, ptr %6) #17
  store i64 2147483647, ptr %6, align 8, !tbaa !9
  call void @llvm.lifetime.start.p0(i64 8, ptr %7) #17
  store i64 2147483647, ptr %7, align 8, !tbaa !9
  %25 = load i64, ptr %4, align 8, !tbaa !9
  %26 = icmp ule i64 %25, 2147483647
  br i1 %26, label %27, label %29

27:                                               ; preds = %24
  %28 = load i64, ptr %4, align 8, !tbaa !9
  store i64 %28, ptr %2, align 8
  store i32 1, ptr %8, align 4
  br label %35

29:                                               ; preds = %24
  %30 = load i64, ptr %4, align 8, !tbaa !9
  %31 = sub i64 %30, 2147483647
  %32 = sub i64 %31, 1
  %33 = sub nsw i64 %32, 2147483647
  %34 = sub nsw i64 %33, 1
  store i64 %34, ptr %2, align 8
  store i32 1, ptr %8, align 4
  br label %35

35:                                               ; preds = %29, %27
  call void @llvm.lifetime.end.p0(i64 8, ptr %7) #17
  call void @llvm.lifetime.end.p0(i64 8, ptr %6) #17
  call void @llvm.lifetime.end.p0(i64 8, ptr %4) #17
  %36 = load i64, ptr %2, align 8
  ret i64 %36
}

; Function Attrs: mustprogress uwtable
define internal noundef zeroext i1 @_ZN4absl13time_internal4cctz12_GLOBAL__N_16Header5BuildERK6tzhead(ptr noundef nonnull align 8 dereferenceable(48) %0, ptr noundef nonnull align 1 dereferenceable(44) %1) #0 align 2 {
  %3 = alloca i1, align 1
  %4 = alloca ptr, align 8
  %5 = alloca ptr, align 8
  %6 = alloca i64, align 8
  %7 = alloca i32, align 4
  store ptr %0, ptr %4, align 8, !tbaa !144
  store ptr %1, ptr %5, align 8, !tbaa !146
  %8 = load ptr, ptr %4, align 8
  call void @llvm.lifetime.start.p0(i64 8, ptr %6) #17
  %9 = load ptr, ptr %5, align 8, !tbaa !146
  %10 = getelementptr inbounds nuw %struct.tzhead, ptr %9, i32 0, i32 6
  %11 = getelementptr inbounds [4 x i8], ptr %10, i64 0, i64 0
  %12 = call noundef i64 @_ZN4absl13time_internal4cctz12_GLOBAL__N_18Decode32EPKc(ptr noundef %11)
  store i64 %12, ptr %6, align 8, !tbaa !9
  %13 = icmp slt i64 %12, 0
  br i1 %13, label %14, label %15

14:                                               ; preds = %2
  store i1 false, ptr %3, align 1
  store i32 1, ptr %7, align 4
  br label %63

15:                                               ; preds = %2
  %16 = load i64, ptr %6, align 8, !tbaa !9
  %17 = getelementptr inbounds nuw %"struct.absl::time_internal::cctz::(anonymous namespace)::Header", ptr %8, i32 0, i32 0
  store i64 %16, ptr %17, align 8, !tbaa !135
  %18 = load ptr, ptr %5, align 8, !tbaa !146
  %19 = getelementptr inbounds nuw %struct.tzhead, ptr %18, i32 0, i32 7
  %20 = getelementptr inbounds [4 x i8], ptr %19, i64 0, i64 0
  %21 = call noundef i64 @_ZN4absl13time_internal4cctz12_GLOBAL__N_18Decode32EPKc(ptr noundef %20)
  store i64 %21, ptr %6, align 8, !tbaa !9
  %22 = icmp slt i64 %21, 0
  br i1 %22, label %23, label %24

23:                                               ; preds = %15
  store i1 false, ptr %3, align 1
  store i32 1, ptr %7, align 4
  br label %63

24:                                               ; preds = %15
  %25 = load i64, ptr %6, align 8, !tbaa !9
  %26 = getelementptr inbounds nuw %"struct.absl::time_internal::cctz::(anonymous namespace)::Header", ptr %8, i32 0, i32 1
  store i64 %25, ptr %26, align 8, !tbaa !130
  %27 = load ptr, ptr %5, align 8, !tbaa !146
  %28 = getelementptr inbounds nuw %struct.tzhead, ptr %27, i32 0, i32 8
  %29 = getelementptr inbounds [4 x i8], ptr %28, i64 0, i64 0
  %30 = call noundef i64 @_ZN4absl13time_internal4cctz12_GLOBAL__N_18Decode32EPKc(ptr noundef %29)
  store i64 %30, ptr %6, align 8, !tbaa !9
  %31 = icmp slt i64 %30, 0
  br i1 %31, label %32, label %33

32:                                               ; preds = %24
  store i1 false, ptr %3, align 1
  store i32 1, ptr %7, align 4
  br label %63

33:                                               ; preds = %24
  %34 = load i64, ptr %6, align 8, !tbaa !9
  %35 = getelementptr inbounds nuw %"struct.absl::time_internal::cctz::(anonymous namespace)::Header", ptr %8, i32 0, i32 2
  store i64 %34, ptr %35, align 8, !tbaa !138
  %36 = load ptr, ptr %5, align 8, !tbaa !146
  %37 = getelementptr inbounds nuw %struct.tzhead, ptr %36, i32 0, i32 5
  %38 = getelementptr inbounds [4 x i8], ptr %37, i64 0, i64 0
  %39 = call noundef i64 @_ZN4absl13time_internal4cctz12_GLOBAL__N_18Decode32EPKc(ptr noundef %38)
  store i64 %39, ptr %6, align 8, !tbaa !9
  %40 = icmp slt i64 %39, 0
  br i1 %40, label %41, label %42

41:                                               ; preds = %33
  store i1 false, ptr %3, align 1
  store i32 1, ptr %7, align 4
  br label %63

42:                                               ; preds = %33
  %43 = load i64, ptr %6, align 8, !tbaa !9
  %44 = getelementptr inbounds nuw %"struct.absl::time_internal::cctz::(anonymous namespace)::Header", ptr %8, i32 0, i32 3
  store i64 %43, ptr %44, align 8, !tbaa !132
  %45 = load ptr, ptr %5, align 8, !tbaa !146
  %46 = getelementptr inbounds nuw %struct.tzhead, ptr %45, i32 0, i32 4
  %47 = getelementptr inbounds [4 x i8], ptr %46, i64 0, i64 0
  %48 = call noundef i64 @_ZN4absl13time_internal4cctz12_GLOBAL__N_18Decode32EPKc(ptr noundef %47)
  store i64 %48, ptr %6, align 8, !tbaa !9
  %49 = icmp slt i64 %48, 0
  br i1 %49, label %50, label %51

50:                                               ; preds = %42
  store i1 false, ptr %3, align 1
  store i32 1, ptr %7, align 4
  br label %63

51:                                               ; preds = %42
  %52 = load i64, ptr %6, align 8, !tbaa !9
  %53 = getelementptr inbounds nuw %"struct.absl::time_internal::cctz::(anonymous namespace)::Header", ptr %8, i32 0, i32 4
  store i64 %52, ptr %53, align 8, !tbaa !133
  %54 = load ptr, ptr %5, align 8, !tbaa !146
  %55 = getelementptr inbounds nuw %struct.tzhead, ptr %54, i32 0, i32 3
  %56 = getelementptr inbounds [4 x i8], ptr %55, i64 0, i64 0
  %57 = call noundef i64 @_ZN4absl13time_internal4cctz12_GLOBAL__N_18Decode32EPKc(ptr noundef %56)
  store i64 %57, ptr %6, align 8, !tbaa !9
  %58 = icmp slt i64 %57, 0
  br i1 %58, label %59, label %60

59:                                               ; preds = %51
  store i1 false, ptr %3, align 1
  store i32 1, ptr %7, align 4
  br label %63

60:                                               ; preds = %51
  %61 = load i64, ptr %6, align 8, !tbaa !9
  %62 = getelementptr inbounds nuw %"struct.absl::time_internal::cctz::(anonymous namespace)::Header", ptr %8, i32 0, i32 5
  store i64 %61, ptr %62, align 8, !tbaa !134
  store i1 true, ptr %3, align 1
  store i32 1, ptr %7, align 4
  br label %63

63:                                               ; preds = %60, %59, %50, %41, %32, %23, %14
  call void @llvm.lifetime.end.p0(i64 8, ptr %6) #17
  %64 = load i1, ptr %3, align 1
  ret i1 %64
}