; Function Attrs: mustprogress nofree norecurse nosync nounwind memory(argmem: readwrite) uwtable
define internal fastcc noundef zeroext i1 @_ZN4absl13time_internal4cctz12_GLOBAL__N_16Header5BuildERK6tzhead(ptr noundef nonnull writeonly align 8 captures(none) dereferenceable(48) %0, ptr noundef nonnull readonly align 1 captures(none) dereferenceable(44) %1) unnamed_addr #7 align 2 {
  %3 = getelementptr inbounds nuw i8, ptr %1, i64 32
  br label %4

4:                                                ; preds = %4, %2
  %.0712.i = phi ptr [ %3, %2 ], [ %6, %4 ]
  %.0811.i = phi i32 [ 0, %2 ], [ %9, %4 ]
  %.0910.i = phi i64 [ 0, %2 ], [ %8, %4 ]
  %5 = shl i64 %.0910.i, 8
  %6 = getelementptr inbounds nuw i8, ptr %.0712.i, i64 1
  %.07.val.i = load i8, ptr %.0712.i, align 1, !tbaa !33
  %7 = zext i8 %.07.val.i to i64
  %8 = or disjoint i64 %5, %7
  %9 = add nuw nsw i32 %.0811.i, 1
  %.not.i = icmp eq i32 %9, 4
  br i1 %.not.i, label %_ZN4absl13time_internal4cctz12_GLOBAL__N_18Decode32EPKc.exit, label %4, !llvm.loop !125

_ZN4absl13time_internal4cctz12_GLOBAL__N_18Decode32EPKc.exit: ; preds = %4
  %10 = icmp ult i64 %5, 2147483648
  %11 = add i64 %8, -4294967296
  %.0.i = select i1 %10, i64 %8, i64 %11
  %12 = icmp slt i64 %.0.i, 0
  br i1 %12, label %74, label %13

13:                                               ; preds = %_ZN4absl13time_internal4cctz12_GLOBAL__N_18Decode32EPKc.exit
  store i64 %.0.i, ptr %0, align 8, !tbaa !116
  %14 = getelementptr inbounds nuw i8, ptr %1, i64 36
  br label %15

15:                                               ; preds = %15, %13
  %.0712.i19 = phi ptr [ %14, %13 ], [ %17, %15 ]
  %.0811.i20 = phi i32 [ 0, %13 ], [ %20, %15 ]
  %.0910.i21 = phi i64 [ 0, %13 ], [ %19, %15 ]
  %16 = shl i64 %.0910.i21, 8
  %17 = getelementptr inbounds nuw i8, ptr %.0712.i19, i64 1
  %.07.val.i22 = load i8, ptr %.0712.i19, align 1, !tbaa !33
  %18 = zext i8 %.07.val.i22 to i64
  %19 = or disjoint i64 %16, %18
  %20 = add nuw nsw i32 %.0811.i20, 1
  %.not.i23 = icmp eq i32 %20, 4
  br i1 %.not.i23, label %_ZN4absl13time_internal4cctz12_GLOBAL__N_18Decode32EPKc.exit25, label %15, !llvm.loop !125

_ZN4absl13time_internal4cctz12_GLOBAL__N_18Decode32EPKc.exit25: ; preds = %15
  %21 = icmp ult i64 %16, 2147483648
  %22 = add i64 %19, -4294967296
  %.0.i24 = select i1 %21, i64 %19, i64 %22
  %23 = icmp slt i64 %.0.i24, 0
  br i1 %23, label %74, label %24

24:                                               ; preds = %_ZN4absl13time_internal4cctz12_GLOBAL__N_18Decode32EPKc.exit25
  %25 = getelementptr inbounds nuw i8, ptr %0, i64 8
  store i64 %.0.i24, ptr %25, align 8, !tbaa !118
  %26 = getelementptr inbounds nuw i8, ptr %1, i64 40
  br label %27

27:                                               ; preds = %27, %24
  %.0712.i26 = phi ptr [ %26, %24 ], [ %29, %27 ]
  %.0811.i27 = phi i32 [ 0, %24 ], [ %32, %27 ]
  %.0910.i28 = phi i64 [ 0, %24 ], [ %31, %27 ]
  %28 = shl i64 %.0910.i28, 8
  %29 = getelementptr inbounds nuw i8, ptr %.0712.i26, i64 1
  %.07.val.i29 = load i8, ptr %.0712.i26, align 1, !tbaa !33
  %30 = zext i8 %.07.val.i29 to i64
  %31 = or disjoint i64 %28, %30
  %32 = add nuw nsw i32 %.0811.i27, 1
  %.not.i30 = icmp eq i32 %32, 4
  br i1 %.not.i30, label %_ZN4absl13time_internal4cctz12_GLOBAL__N_18Decode32EPKc.exit32, label %27, !llvm.loop !125

_ZN4absl13time_internal4cctz12_GLOBAL__N_18Decode32EPKc.exit32: ; preds = %27
  %33 = icmp ult i64 %28, 2147483648
  %34 = add i64 %31, -4294967296
  %.0.i31 = select i1 %33, i64 %31, i64 %34
  %35 = icmp slt i64 %.0.i31, 0
  br i1 %35, label %74, label %36

36:                                               ; preds = %_ZN4absl13time_internal4cctz12_GLOBAL__N_18Decode32EPKc.exit32
  %37 = getelementptr inbounds nuw i8, ptr %0, i64 16
  store i64 %.0.i31, ptr %37, align 8, !tbaa !119
  %38 = getelementptr inbounds nuw i8, ptr %1, i64 28
  br label %39

39:                                               ; preds = %39, %36
  %.0712.i33 = phi ptr [ %38, %36 ], [ %41, %39 ]
  %.0811.i34 = phi i32 [ 0, %36 ], [ %44, %39 ]
  %.0910.i35 = phi i64 [ 0, %36 ], [ %43, %39 ]
  %40 = shl i64 %.0910.i35, 8
  %41 = getelementptr inbounds nuw i8, ptr %.0712.i33, i64 1
  %.07.val.i36 = load i8, ptr %.0712.i33, align 1, !tbaa !33
  %42 = zext i8 %.07.val.i36 to i64
  %43 = or disjoint i64 %40, %42
  %44 = add nuw nsw i32 %.0811.i34, 1
  %.not.i37 = icmp eq i32 %44, 4
  br i1 %.not.i37, label %_ZN4absl13time_internal4cctz12_GLOBAL__N_18Decode32EPKc.exit39, label %39, !llvm.loop !125

_ZN4absl13time_internal4cctz12_GLOBAL__N_18Decode32EPKc.exit39: ; preds = %39
  %45 = icmp ult i64 %40, 2147483648
  %46 = add i64 %43, -4294967296
  %.0.i38 = select i1 %45, i64 %43, i64 %46
  %47 = icmp slt i64 %.0.i38, 0
  br i1 %47, label %74, label %48

48:                                               ; preds = %_ZN4absl13time_internal4cctz12_GLOBAL__N_18Decode32EPKc.exit39
  %49 = getelementptr inbounds nuw i8, ptr %0, i64 24
  store i64 %.0.i38, ptr %49, align 8, !tbaa !120
  %50 = getelementptr inbounds nuw i8, ptr %1, i64 24
  br label %51

51:                                               ; preds = %51, %48
  %.0712.i40 = phi ptr [ %50, %48 ], [ %53, %51 ]
  %.0811.i41 = phi i32 [ 0, %48 ], [ %56, %51 ]
  %.0910.i42 = phi i64 [ 0, %48 ], [ %55, %51 ]
  %52 = shl i64 %.0910.i42, 8
  %53 = getelementptr inbounds nuw i8, ptr %.0712.i40, i64 1
  %.07.val.i43 = load i8, ptr %.0712.i40, align 1, !tbaa !33
  %54 = zext i8 %.07.val.i43 to i64
  %55 = or disjoint i64 %52, %54
  %56 = add nuw nsw i32 %.0811.i41, 1
  %.not.i44 = icmp eq i32 %56, 4
  br i1 %.not.i44, label %_ZN4absl13time_internal4cctz12_GLOBAL__N_18Decode32EPKc.exit46, label %51, !llvm.loop !125

_ZN4absl13time_internal4cctz12_GLOBAL__N_18Decode32EPKc.exit46: ; preds = %51
  %57 = icmp ult i64 %52, 2147483648
  %58 = add i64 %55, -4294967296
  %.0.i45 = select i1 %57, i64 %55, i64 %58
  %59 = icmp slt i64 %.0.i45, 0
  br i1 %59, label %74, label %60

60:                                               ; preds = %_ZN4absl13time_internal4cctz12_GLOBAL__N_18Decode32EPKc.exit46
  %61 = getelementptr inbounds nuw i8, ptr %0, i64 32
  store i64 %.0.i45, ptr %61, align 8, !tbaa !121
  %62 = getelementptr inbounds nuw i8, ptr %1, i64 20
  br label %63

63:                                               ; preds = %63, %60
  %.0712.i47 = phi ptr [ %62, %60 ], [ %65, %63 ]
  %.0811.i48 = phi i32 [ 0, %60 ], [ %68, %63 ]
  %.0910.i49 = phi i64 [ 0, %60 ], [ %67, %63 ]
  %64 = shl i64 %.0910.i49, 8
  %65 = getelementptr inbounds nuw i8, ptr %.0712.i47, i64 1
  %.07.val.i50 = load i8, ptr %.0712.i47, align 1, !tbaa !33
  %66 = zext i8 %.07.val.i50 to i64
  %67 = or disjoint i64 %64, %66
  %68 = add nuw nsw i32 %.0811.i48, 1
  %.not.i51 = icmp eq i32 %68, 4
  br i1 %.not.i51, label %_ZN4absl13time_internal4cctz12_GLOBAL__N_18Decode32EPKc.exit53, label %63, !llvm.loop !125

_ZN4absl13time_internal4cctz12_GLOBAL__N_18Decode32EPKc.exit53: ; preds = %63
  %69 = icmp ult i64 %64, 2147483648
  %70 = add i64 %67, -4294967296
  %.0.i52 = select i1 %69, i64 %67, i64 %70
  %71 = icmp slt i64 %.0.i52, 0
  br i1 %71, label %74, label %72

72:                                               ; preds = %_ZN4absl13time_internal4cctz12_GLOBAL__N_18Decode32EPKc.exit53
  %73 = getelementptr inbounds nuw i8, ptr %0, i64 40
  store i64 %.0.i52, ptr %73, align 8, !tbaa !122
  br label %74

74:                                               ; preds = %_ZN4absl13time_internal4cctz12_GLOBAL__N_18Decode32EPKc.exit53, %_ZN4absl13time_internal4cctz12_GLOBAL__N_18Decode32EPKc.exit46, %_ZN4absl13time_internal4cctz12_GLOBAL__N_18Decode32EPKc.exit39, %_ZN4absl13time_internal4cctz12_GLOBAL__N_18Decode32EPKc.exit32, %_ZN4absl13time_internal4cctz12_GLOBAL__N_18Decode32EPKc.exit25, %_ZN4absl13time_internal4cctz12_GLOBAL__N_18Decode32EPKc.exit, %72
  %.0 = phi i1 [ true, %72 ], [ false, %_ZN4absl13time_internal4cctz12_GLOBAL__N_18Decode32EPKc.exit ], [ false, %_ZN4absl13time_internal4cctz12_GLOBAL__N_18Decode32EPKc.exit25 ], [ false, %_ZN4absl13time_internal4cctz12_GLOBAL__N_18Decode32EPKc.exit32 ], [ false, %_ZN4absl13time_internal4cctz12_GLOBAL__N_18Decode32EPKc.exit39 ], [ false, %_ZN4absl13time_internal4cctz12_GLOBAL__N_18Decode32EPKc.exit46 ], [ false, %_ZN4absl13time_internal4cctz12_GLOBAL__N_18Decode32EPKc.exit53 ]
  ret i1 %.0
}